
bin/Release/hotel-room-small-safe.elf:     file format elf32-avr

Sections:
Idx Name          Size      VMA       LMA       File off  Algn
  0 .text         00000b5c  00000000  00000000  00000094  2**1
                  CONTENTS, ALLOC, LOAD, READONLY, CODE
  1 .data         0000006c  00800060  00000b5c  00000bf0  2**0
                  CONTENTS, ALLOC, LOAD, DATA
  2 .bss          00000004  008000cc  008000cc  00000c5c  2**0
                  ALLOC
  3 .comment      00000011  00000000  00000000  00000c5c  2**0
                  CONTENTS, READONLY
  4 .note.gnu.avr.deviceinfo 0000003c  00000000  00000000  00000c70  2**2
                  CONTENTS, READONLY
  5 .debug_info   000004e6  00000000  00000000  00000cac  2**0
                  CONTENTS, READONLY, DEBUGGING
  6 .debug_abbrev 000004a3  00000000  00000000  00001192  2**0
                  CONTENTS, READONLY, DEBUGGING
  7 .debug_line   0000001a  00000000  00000000  00001635  2**0
                  CONTENTS, READONLY, DEBUGGING
  8 .debug_str    00000196  00000000  00000000  0000164f  2**0
                  CONTENTS, READONLY, DEBUGGING

Disassembly of section .text:

00000000 <__vectors>:
   0:	0c 94 2a 00 	jmp	0x54	; 0x54 <__ctors_end>
   4:	0c 94 47 00 	jmp	0x8e	; 0x8e <__bad_interrupt>
   8:	0c 94 47 00 	jmp	0x8e	; 0x8e <__bad_interrupt>
   c:	0c 94 47 00 	jmp	0x8e	; 0x8e <__bad_interrupt>
  10:	0c 94 47 00 	jmp	0x8e	; 0x8e <__bad_interrupt>
  14:	0c 94 47 00 	jmp	0x8e	; 0x8e <__bad_interrupt>
  18:	0c 94 47 00 	jmp	0x8e	; 0x8e <__bad_interrupt>
  1c:	0c 94 47 00 	jmp	0x8e	; 0x8e <__bad_interrupt>
  20:	0c 94 47 00 	jmp	0x8e	; 0x8e <__bad_interrupt>
  24:	0c 94 47 00 	jmp	0x8e	; 0x8e <__bad_interrupt>
  28:	0c 94 47 00 	jmp	0x8e	; 0x8e <__bad_interrupt>
  2c:	0c 94 47 00 	jmp	0x8e	; 0x8e <__bad_interrupt>
  30:	0c 94 47 00 	jmp	0x8e	; 0x8e <__bad_interrupt>
  34:	0c 94 47 00 	jmp	0x8e	; 0x8e <__bad_interrupt>
  38:	0c 94 47 00 	jmp	0x8e	; 0x8e <__bad_interrupt>
  3c:	0c 94 47 00 	jmp	0x8e	; 0x8e <__bad_interrupt>
  40:	0c 94 47 00 	jmp	0x8e	; 0x8e <__bad_interrupt>
  44:	0c 94 47 00 	jmp	0x8e	; 0x8e <__bad_interrupt>
  48:	0c 94 47 00 	jmp	0x8e	; 0x8e <__bad_interrupt>
  4c:	0c 94 47 00 	jmp	0x8e	; 0x8e <__bad_interrupt>
  50:	0c 94 47 00 	jmp	0x8e	; 0x8e <__bad_interrupt>

00000054 <__ctors_end>:
  54:	11 24       	eor	r1, r1
  56:	1f be       	out	0x3f, r1	; 63
  58:	cf e5       	ldi	r28, 0x5F	; 95
  5a:	d8 e0       	ldi	r29, 0x08	; 8
  5c:	de bf       	out	0x3e, r29	; 62
  5e:	cd bf       	out	0x3d, r28	; 61

00000060 <__do_copy_data>:
  60:	10 e0       	ldi	r17, 0x00	; 0
  62:	a0 e6       	ldi	r26, 0x60	; 96
  64:	b0 e0       	ldi	r27, 0x00	; 0
  66:	ec e5       	ldi	r30, 0x5C	; 92
  68:	fb e0       	ldi	r31, 0x0B	; 11
  6a:	02 c0       	rjmp	.+4      	; 0x70 <__do_copy_data+0x10>
  6c:	05 90       	lpm	r0, Z+
  6e:	0d 92       	st	X+, r0
  70:	ac 3c       	cpi	r26, 0xCC	; 204
  72:	b1 07       	cpc	r27, r17
  74:	d9 f7       	brne	.-10     	; 0x6c <__do_copy_data+0xc>

00000076 <__do_clear_bss>:
  76:	20 e0       	ldi	r18, 0x00	; 0
  78:	ac ec       	ldi	r26, 0xCC	; 204
  7a:	b0 e0       	ldi	r27, 0x00	; 0
  7c:	01 c0       	rjmp	.+2      	; 0x80 <.do_clear_bss_start>

0000007e <.do_clear_bss_loop>:
  7e:	1d 92       	st	X+, r1

00000080 <.do_clear_bss_start>:
  80:	a0 3d       	cpi	r26, 0xD0	; 208
  82:	b2 07       	cpc	r27, r18
  84:	e1 f7       	brne	.-8      	; 0x7e <.do_clear_bss_loop>
  86:	0e 94 a1 04 	call	0x942	; 0x942 <main>
  8a:	0c 94 ac 05 	jmp	0xb58	; 0xb58 <_exit>

0000008e <__bad_interrupt>:
  8e:	0c 94 00 00 	jmp	0	; 0x0 <__vectors>

00000092 <APP_voidInit>:
  92:	0e 94 5d 04 	call	0x8ba	; 0x8ba <TIMER0_voidInit>
  96:	0e 94 55 02 	call	0x4aa	; 0x4aa <LCD_voidInit>
  9a:	0e 94 96 01 	call	0x32c	; 0x32c <KEYPAD_voidInit>
  9e:	60 e0       	ldi	r22, 0x00	; 0
  a0:	84 e4       	ldi	r24, 0x44	; 68
  a2:	0c 94 8d 01 	jmp	0x31a	; 0x31a <BUZZER_voidInit>

000000a6 <get_key_press>:
  a6:	0e 94 c8 01 	call	0x390	; 0x390 <KEYPAD_u8GetChar>
  aa:	88 23       	and	r24, r24
  ac:	e1 f3       	breq	.-8      	; 0xa6 <get_key_press>
  ae:	08 95       	ret

000000b0 <get_password>:
  b0:	0f 93       	push	r16
  b2:	1f 93       	push	r17
  b4:	cf 93       	push	r28
  b6:	80 ec       	ldi	r24, 0xC0	; 192
  b8:	0e 94 0e 02 	call	0x41c	; 0x41c <LCD_voidWriteCommand>
  bc:	0c ec       	ldi	r16, 0xCC	; 204
  be:	10 e0       	ldi	r17, 0x00	; 0
  c0:	f0 e0       	ldi	r31, 0x00	; 0
  c2:	00 3d       	cpi	r16, 0xD0	; 208
  c4:	1f 07       	cpc	r17, r31
  c6:	d9 f0       	breq	.+54     	; 0xfe <get_password+0x4e>
  c8:	0e 94 c8 01 	call	0x390	; 0x390 <KEYPAD_u8GetChar>
  cc:	c8 2f       	mov	r28, r24
  ce:	88 23       	and	r24, r24
  d0:	b9 f3       	breq	.-18     	; 0xc0 <get_password+0x10>
  d2:	60 e0       	ldi	r22, 0x00	; 0
  d4:	84 e4       	ldi	r24, 0x44	; 68
  d6:	0e 94 90 01 	call	0x320	; 0x320 <BUZZER_voidOn>
  da:	8a e2       	ldi	r24, 0x2A	; 42
  dc:	0e 94 7d 02 	call	0x4fa	; 0x4fa <LCD_voidWriteChar>
  e0:	60 e0       	ldi	r22, 0x00	; 0
  e2:	70 e0       	ldi	r23, 0x00	; 0
  e4:	88 ec       	ldi	r24, 0xC8	; 200
  e6:	92 e4       	ldi	r25, 0x42	; 66
  e8:	0e 94 69 04 	call	0x8d2	; 0x8d2 <TIMER0_voidDelay_ms>
  ec:	60 e0       	ldi	r22, 0x00	; 0
  ee:	84 e4       	ldi	r24, 0x44	; 68
  f0:	0e 94 93 01 	call	0x326	; 0x326 <BUZZER_voidOff>
  f4:	c0 53       	subi	r28, 0x30	; 48
  f6:	f8 01       	movw	r30, r16
  f8:	c1 93       	st	Z+, r28
  fa:	8f 01       	movw	r16, r30
  fc:	e1 cf       	rjmp	.-62     	; 0xc0 <get_password+0x10>
  fe:	cf 91       	pop	r28
 100:	1f 91       	pop	r17
 102:	0f 91       	pop	r16
 104:	08 95       	ret

00000106 <change_password>:
 106:	1f 93       	push	r17
 108:	cf 93       	push	r28
 10a:	df 93       	push	r29
 10c:	c0 e2       	ldi	r28, 0x20	; 32
 10e:	d0 e0       	ldi	r29, 0x00	; 0
 110:	c4 32       	cpi	r28, 0x24	; 36
 112:	d1 05       	cpc	r29, r1
 114:	e9 f0       	breq	.+58     	; 0x150 <change_password+0x4a>
 116:	0e 94 c8 01 	call	0x390	; 0x390 <KEYPAD_u8GetChar>
 11a:	18 2f       	mov	r17, r24
 11c:	88 23       	and	r24, r24
 11e:	c1 f3       	breq	.-16     	; 0x110 <change_password+0xa>
 120:	60 e0       	ldi	r22, 0x00	; 0
 122:	84 e4       	ldi	r24, 0x44	; 68
 124:	0e 94 90 01 	call	0x320	; 0x320 <BUZZER_voidOn>
 128:	8a e2       	ldi	r24, 0x2A	; 42
 12a:	0e 94 7d 02 	call	0x4fa	; 0x4fa <LCD_voidWriteChar>
 12e:	60 e0       	ldi	r22, 0x00	; 0
 130:	70 e0       	ldi	r23, 0x00	; 0
 132:	88 ec       	ldi	r24, 0xC8	; 200
 134:	92 e4       	ldi	r25, 0x42	; 66
 136:	0e 94 69 04 	call	0x8d2	; 0x8d2 <TIMER0_voidDelay_ms>
 13a:	60 e0       	ldi	r22, 0x00	; 0
 13c:	84 e4       	ldi	r24, 0x44	; 68
 13e:	0e 94 93 01 	call	0x326	; 0x326 <BUZZER_voidOff>
 142:	60 ed       	ldi	r22, 0xD0	; 208
 144:	61 0f       	add	r22, r17
 146:	ce 01       	movw	r24, r28
 148:	0e 94 4e 04 	call	0x89c	; 0x89c <EEPROM_voidWrite>
 14c:	21 96       	adiw	r28, 0x01	; 1
 14e:	e0 cf       	rjmp	.-64     	; 0x110 <change_password+0xa>
 150:	df 91       	pop	r29
 152:	cf 91       	pop	r28
 154:	1f 91       	pop	r17
 156:	08 95       	ret

00000158 <reset_password>:
 158:	cf 93       	push	r28
 15a:	df 93       	push	r29
 15c:	c0 e2       	ldi	r28, 0x20	; 32
 15e:	d0 e0       	ldi	r29, 0x00	; 0
 160:	60 e0       	ldi	r22, 0x00	; 0
 162:	ce 01       	movw	r24, r28
 164:	0e 94 4e 04 	call	0x89c	; 0x89c <EEPROM_voidWrite>
 168:	21 96       	adiw	r28, 0x01	; 1
 16a:	c4 32       	cpi	r28, 0x24	; 36
 16c:	d1 05       	cpc	r29, r1
 16e:	c1 f7       	brne	.-16     	; 0x160 <reset_password+0x8>
 170:	df 91       	pop	r29
 172:	cf 91       	pop	r28
 174:	08 95       	ret

00000176 <verify_password>:
 176:	ff 92       	push	r15
 178:	0f 93       	push	r16
 17a:	1f 93       	push	r17
 17c:	cf 93       	push	r28
 17e:	df 93       	push	r29
 180:	0c ec       	ldi	r16, 0xCC	; 204
 182:	10 e0       	ldi	r17, 0x00	; 0
 184:	c0 e2       	ldi	r28, 0x20	; 32
 186:	d0 e0       	ldi	r29, 0x00	; 0
 188:	f8 01       	movw	r30, r16
 18a:	f1 90       	ld	r15, Z+
 18c:	8f 01       	movw	r16, r30
 18e:	ce 01       	movw	r24, r28
 190:	0e 94 56 04 	call	0x8ac	; 0x8ac <EEPROM_voidRead>
 194:	f8 12       	cpse	r15, r24
 196:	06 c0       	rjmp	.+12     	; 0x1a4 <verify_password+0x2e>
 198:	21 96       	adiw	r28, 0x01	; 1
 19a:	c4 32       	cpi	r28, 0x24	; 36
 19c:	d1 05       	cpc	r29, r1
 19e:	a1 f7       	brne	.-24     	; 0x188 <verify_password+0x12>
 1a0:	80 e0       	ldi	r24, 0x00	; 0
 1a2:	01 c0       	rjmp	.+2      	; 0x1a6 <verify_password+0x30>
 1a4:	81 e0       	ldi	r24, 0x01	; 1
 1a6:	df 91       	pop	r29
 1a8:	cf 91       	pop	r28
 1aa:	1f 91       	pop	r17
 1ac:	0f 91       	pop	r16
 1ae:	ff 90       	pop	r15
 1b0:	08 95       	ret

000001b2 <APP_voidStart>:
 1b2:	df 92       	push	r13
 1b4:	ef 92       	push	r14
 1b6:	ff 92       	push	r15
 1b8:	0f 93       	push	r16
 1ba:	1f 93       	push	r17
 1bc:	cf 93       	push	r28
 1be:	df 93       	push	r29
 1c0:	cd b7       	in	r28, 0x3d	; 61
 1c2:	de b7       	in	r29, 0x3e	; 62
 1c4:	2a 97       	sbiw	r28, 0x0a	; 10
 1c6:	0f b6       	in	r0, 0x3f	; 63
 1c8:	f8 94       	cli
 1ca:	de bf       	out	0x3e, r29	; 62
 1cc:	0f be       	out	0x3f, r0	; 63
 1ce:	cd bf       	out	0x3d, r28	; 61
 1d0:	0e 94 2a 03 	call	0x654	; 0x654 <LCD_voidClear>
 1d4:	6c e6       	ldi	r22, 0x6C	; 108
 1d6:	70 e0       	ldi	r23, 0x00	; 0
 1d8:	80 e0       	ldi	r24, 0x00	; 0
 1da:	0e 94 c4 02 	call	0x588	; 0x588 <LCD_voidWriteString>
 1de:	0e 94 58 00 	call	0xb0	; 0xb0 <get_password>
 1e2:	0e 94 bb 00 	call	0x176	; 0x176 <verify_password>
 1e6:	81 11       	cpse	r24, r1
 1e8:	f3 cf       	rjmp	.-26     	; 0x1d0 <APP_voidStart+0x1e>
 1ea:	0e 94 2a 03 	call	0x654	; 0x654 <LCD_voidClear>
 1ee:	6c e7       	ldi	r22, 0x7C	; 124
 1f0:	70 e0       	ldi	r23, 0x00	; 0
 1f2:	80 e0       	ldi	r24, 0x00	; 0
 1f4:	0e 94 c4 02 	call	0x588	; 0x588 <LCD_voidWriteString>
 1f8:	60 e0       	ldi	r22, 0x00	; 0
 1fa:	70 e0       	ldi	r23, 0x00	; 0
 1fc:	8a ef       	ldi	r24, 0xFA	; 250
 1fe:	94 e4       	ldi	r25, 0x44	; 68
 200:	0e 94 69 04 	call	0x8d2	; 0x8d2 <TIMER0_voidDelay_ms>
 204:	0e 94 2a 03 	call	0x654	; 0x654 <LCD_voidClear>
 208:	65 e8       	ldi	r22, 0x85	; 133
 20a:	70 e0       	ldi	r23, 0x00	; 0
 20c:	81 e0       	ldi	r24, 0x01	; 1
 20e:	0e 94 c4 02 	call	0x588	; 0x588 <LCD_voidWriteString>
 212:	66 e9       	ldi	r22, 0x96	; 150
 214:	70 e0       	ldi	r23, 0x00	; 0
 216:	80 e0       	ldi	r24, 0x00	; 0
 218:	0e 94 c4 02 	call	0x588	; 0x588 <LCD_voidWriteString>
 21c:	0e 94 53 00 	call	0xa6	; 0xa6 <get_key_press>
 220:	18 2f       	mov	r17, r24
 222:	60 e0       	ldi	r22, 0x00	; 0
 224:	84 e4       	ldi	r24, 0x44	; 68
 226:	0e 94 90 01 	call	0x320	; 0x320 <BUZZER_voidOn>
 22a:	60 e0       	ldi	r22, 0x00	; 0
 22c:	70 e0       	ldi	r23, 0x00	; 0
 22e:	88 ec       	ldi	r24, 0xC8	; 200
 230:	92 e4       	ldi	r25, 0x42	; 66
 232:	0e 94 69 04 	call	0x8d2	; 0x8d2 <TIMER0_voidDelay_ms>
 236:	60 e0       	ldi	r22, 0x00	; 0
 238:	84 e4       	ldi	r24, 0x44	; 68
 23a:	0e 94 93 01 	call	0x326	; 0x326 <BUZZER_voidOff>
 23e:	13 32       	cpi	r17, 0x23	; 35
 240:	89 f4       	brne	.+34     	; 0x264 <APP_voidStart+0xb2>
 242:	0e 94 2a 03 	call	0x654	; 0x654 <LCD_voidClear>
 246:	6e e9       	ldi	r22, 0x9E	; 158
 248:	70 e0       	ldi	r23, 0x00	; 0
 24a:	80 e0       	ldi	r24, 0x00	; 0
 24c:	0e 94 c4 02 	call	0x588	; 0x588 <LCD_voidWriteString>
 250:	80 ec       	ldi	r24, 0xC0	; 192
 252:	0e 94 0e 02 	call	0x41c	; 0x41c <LCD_voidWriteCommand>
 256:	0e 94 83 00 	call	0x106	; 0x106 <change_password>
 25a:	0e 94 2a 03 	call	0x654	; 0x654 <LCD_voidClear>
 25e:	6c ea       	ldi	r22, 0xAC	; 172
 260:	70 e0       	ldi	r23, 0x00	; 0
 262:	37 c0       	rjmp	.+110    	; 0x2d2 <APP_voidStart+0x120>
 264:	10 33       	cpi	r17, 0x30	; 48
 266:	09 f0       	breq	.+2      	; 0x26a <APP_voidStart+0xb8>
 268:	4a c0       	rjmp	.+148    	; 0x2fe <APP_voidStart+0x14c>
 26a:	0e 94 2a 03 	call	0x654	; 0x654 <LCD_voidClear>
 26e:	80 e3       	ldi	r24, 0x30	; 48
 270:	0e 94 7d 02 	call	0x4fa	; 0x4fa <LCD_voidWriteChar>
 274:	8e 01       	movw	r16, r28
 276:	0f 5f       	subi	r16, 0xFF	; 255
 278:	1f 4f       	sbci	r17, 0xFF	; 255
 27a:	7e 01       	movw	r14, r28
 27c:	8a e0       	ldi	r24, 0x0A	; 10
 27e:	e8 0e       	add	r14, r24
 280:	f1 1c       	adc	r15, r1
 282:	0e 94 53 00 	call	0xa6	; 0xa6 <get_key_press>
 286:	d8 2e       	mov	r13, r24
 288:	f8 01       	movw	r30, r16
 28a:	81 93       	st	Z+, r24
 28c:	8f 01       	movw	r16, r30
 28e:	60 e0       	ldi	r22, 0x00	; 0
 290:	84 e4       	ldi	r24, 0x44	; 68
 292:	0e 94 90 01 	call	0x320	; 0x320 <BUZZER_voidOn>
 296:	8d 2d       	mov	r24, r13
 298:	0e 94 7d 02 	call	0x4fa	; 0x4fa <LCD_voidWriteChar>
 29c:	60 e0       	ldi	r22, 0x00	; 0
 29e:	70 e0       	ldi	r23, 0x00	; 0
 2a0:	88 ec       	ldi	r24, 0xC8	; 200
 2a2:	92 e4       	ldi	r25, 0x42	; 66
 2a4:	0e 94 69 04 	call	0x8d2	; 0x8d2 <TIMER0_voidDelay_ms>
 2a8:	60 e0       	ldi	r22, 0x00	; 0
 2aa:	84 e4       	ldi	r24, 0x44	; 68
 2ac:	0e 94 93 01 	call	0x326	; 0x326 <BUZZER_voidOff>
 2b0:	0e 15       	cp	r16, r14
 2b2:	1f 05       	cpc	r17, r15
 2b4:	31 f7       	brne	.-52     	; 0x282 <APP_voidStart+0xd0>
 2b6:	fe 01       	movw	r30, r28
 2b8:	32 96       	adiw	r30, 0x02	; 2
 2ba:	81 91       	ld	r24, Z+
 2bc:	80 33       	cpi	r24, 0x30	; 48
 2be:	f9 f4       	brne	.+62     	; 0x2fe <APP_voidStart+0x14c>
 2c0:	ee 15       	cp	r30, r14
 2c2:	ff 05       	cpc	r31, r15
 2c4:	d1 f7       	brne	.-12     	; 0x2ba <APP_voidStart+0x108>
 2c6:	0e 94 ac 00 	call	0x158	; 0x158 <reset_password>
 2ca:	0e 94 2a 03 	call	0x654	; 0x654 <LCD_voidClear>
 2ce:	6d eb       	ldi	r22, 0xBD	; 189
 2d0:	70 e0       	ldi	r23, 0x00	; 0
 2d2:	80 e0       	ldi	r24, 0x00	; 0
 2d4:	0e 94 c4 02 	call	0x588	; 0x588 <LCD_voidWriteString>
 2d8:	60 e0       	ldi	r22, 0x00	; 0
 2da:	70 e0       	ldi	r23, 0x00	; 0
 2dc:	8a ef       	ldi	r24, 0xFA	; 250
 2de:	94 e4       	ldi	r25, 0x44	; 68
 2e0:	2a 96       	adiw	r28, 0x0a	; 10
 2e2:	0f b6       	in	r0, 0x3f	; 63
 2e4:	f8 94       	cli
 2e6:	de bf       	out	0x3e, r29	; 62
 2e8:	0f be       	out	0x3f, r0	; 63
 2ea:	cd bf       	out	0x3d, r28	; 61
 2ec:	df 91       	pop	r29
 2ee:	cf 91       	pop	r28
 2f0:	1f 91       	pop	r17
 2f2:	0f 91       	pop	r16
 2f4:	ff 90       	pop	r15
 2f6:	ef 90       	pop	r14
 2f8:	df 90       	pop	r13
 2fa:	0c 94 69 04 	jmp	0x8d2	; 0x8d2 <TIMER0_voidDelay_ms>
 2fe:	2a 96       	adiw	r28, 0x0a	; 10
 300:	0f b6       	in	r0, 0x3f	; 63
 302:	f8 94       	cli
 304:	de bf       	out	0x3e, r29	; 62
 306:	0f be       	out	0x3f, r0	; 63
 308:	cd bf       	out	0x3d, r28	; 61
 30a:	df 91       	pop	r29
 30c:	cf 91       	pop	r28
 30e:	1f 91       	pop	r17
 310:	0f 91       	pop	r16
 312:	ff 90       	pop	r15
 314:	ef 90       	pop	r14
 316:	df 90       	pop	r13
 318:	08 95       	ret

0000031a <BUZZER_voidInit>:
 31a:	41 e0       	ldi	r20, 0x01	; 1
 31c:	0c 94 2d 03 	jmp	0x65a	; 0x65a <DIO_voidSetPinDirection>

00000320 <BUZZER_voidOn>:
 320:	41 e0       	ldi	r20, 0x01	; 1
 322:	0c 94 97 03 	jmp	0x72e	; 0x72e <DIO_voidSetPinValue>

00000326 <BUZZER_voidOff>:
 326:	40 e0       	ldi	r20, 0x00	; 0
 328:	0c 94 97 03 	jmp	0x72e	; 0x72e <DIO_voidSetPinValue>

0000032c <KEYPAD_voidInit>:
 32c:	41 e0       	ldi	r20, 0x01	; 1
 32e:	60 e0       	ldi	r22, 0x00	; 0
 330:	82 e4       	ldi	r24, 0x42	; 66
 332:	0e 94 2d 03 	call	0x65a	; 0x65a <DIO_voidSetPinDirection>
 336:	41 e0       	ldi	r20, 0x01	; 1
 338:	61 e0       	ldi	r22, 0x01	; 1
 33a:	82 e4       	ldi	r24, 0x42	; 66
 33c:	0e 94 2d 03 	call	0x65a	; 0x65a <DIO_voidSetPinDirection>
 340:	41 e0       	ldi	r20, 0x01	; 1
 342:	62 e0       	ldi	r22, 0x02	; 2
 344:	82 e4       	ldi	r24, 0x42	; 66
 346:	0e 94 2d 03 	call	0x65a	; 0x65a <DIO_voidSetPinDirection>
 34a:	41 e0       	ldi	r20, 0x01	; 1
 34c:	63 e0       	ldi	r22, 0x03	; 3
 34e:	82 e4       	ldi	r24, 0x42	; 66
 350:	0e 94 2d 03 	call	0x65a	; 0x65a <DIO_voidSetPinDirection>
 354:	40 e0       	ldi	r20, 0x00	; 0
 356:	64 e0       	ldi	r22, 0x04	; 4
 358:	82 e4       	ldi	r24, 0x42	; 66
 35a:	0e 94 2d 03 	call	0x65a	; 0x65a <DIO_voidSetPinDirection>
 35e:	40 e0       	ldi	r20, 0x00	; 0
 360:	65 e0       	ldi	r22, 0x05	; 5
 362:	82 e4       	ldi	r24, 0x42	; 66
 364:	0e 94 2d 03 	call	0x65a	; 0x65a <DIO_voidSetPinDirection>
 368:	40 e0       	ldi	r20, 0x00	; 0
 36a:	66 e0       	ldi	r22, 0x06	; 6
 36c:	82 e4       	ldi	r24, 0x42	; 66
 36e:	0e 94 2d 03 	call	0x65a	; 0x65a <DIO_voidSetPinDirection>
 372:	41 e0       	ldi	r20, 0x01	; 1
 374:	64 e0       	ldi	r22, 0x04	; 4
 376:	82 e4       	ldi	r24, 0x42	; 66
 378:	0e 94 97 03 	call	0x72e	; 0x72e <DIO_voidSetPinValue>
 37c:	41 e0       	ldi	r20, 0x01	; 1
 37e:	65 e0       	ldi	r22, 0x05	; 5
 380:	82 e4       	ldi	r24, 0x42	; 66
 382:	0e 94 97 03 	call	0x72e	; 0x72e <DIO_voidSetPinValue>
 386:	41 e0       	ldi	r20, 0x01	; 1
 388:	66 e0       	ldi	r22, 0x06	; 6
 38a:	82 e4       	ldi	r24, 0x42	; 66
 38c:	0c 94 97 03 	jmp	0x72e	; 0x72e <DIO_voidSetPinValue>

00000390 <KEYPAD_u8GetChar>:
 390:	cf 93       	push	r28
 392:	df 93       	push	r29
 394:	41 e0       	ldi	r20, 0x01	; 1
 396:	60 e0       	ldi	r22, 0x00	; 0
 398:	82 e4       	ldi	r24, 0x42	; 66
 39a:	0e 94 97 03 	call	0x72e	; 0x72e <DIO_voidSetPinValue>
 39e:	41 e0       	ldi	r20, 0x01	; 1
 3a0:	61 e0       	ldi	r22, 0x01	; 1
 3a2:	82 e4       	ldi	r24, 0x42	; 66
 3a4:	0e 94 97 03 	call	0x72e	; 0x72e <DIO_voidSetPinValue>
 3a8:	41 e0       	ldi	r20, 0x01	; 1
 3aa:	62 e0       	ldi	r22, 0x02	; 2
 3ac:	82 e4       	ldi	r24, 0x42	; 66
 3ae:	0e 94 97 03 	call	0x72e	; 0x72e <DIO_voidSetPinValue>
 3b2:	41 e0       	ldi	r20, 0x01	; 1
 3b4:	63 e0       	ldi	r22, 0x03	; 3
 3b6:	82 e4       	ldi	r24, 0x42	; 66
 3b8:	0e 94 97 03 	call	0x72e	; 0x72e <DIO_voidSetPinValue>
 3bc:	c0 e0       	ldi	r28, 0x00	; 0
 3be:	40 e0       	ldi	r20, 0x00	; 0
 3c0:	6c 2f       	mov	r22, r28
 3c2:	82 e4       	ldi	r24, 0x42	; 66
 3c4:	0e 94 97 03 	call	0x72e	; 0x72e <DIO_voidSetPinValue>
 3c8:	d4 e0       	ldi	r29, 0x04	; 4
 3ca:	6d 2f       	mov	r22, r29
 3cc:	82 e4       	ldi	r24, 0x42	; 66
 3ce:	0e 94 34 04 	call	0x868	; 0x868 <DIO_u8GetPinValue>
 3d2:	81 11       	cpse	r24, r1
 3d4:	14 c0       	rjmp	.+40     	; 0x3fe <KEYPAD_u8GetChar+0x6e>
 3d6:	6d 2f       	mov	r22, r29
 3d8:	82 e4       	ldi	r24, 0x42	; 66
 3da:	0e 94 34 04 	call	0x868	; 0x868 <DIO_u8GetPinValue>
 3de:	88 23       	and	r24, r24
 3e0:	d1 f3       	breq	.-12     	; 0x3d6 <KEYPAD_u8GetChar+0x46>
 3e2:	6c 2f       	mov	r22, r28
 3e4:	70 e0       	ldi	r23, 0x00	; 0
 3e6:	fb 01       	movw	r30, r22
 3e8:	ee 0f       	add	r30, r30
 3ea:	ff 1f       	adc	r31, r31
 3ec:	e6 0f       	add	r30, r22
 3ee:	f7 1f       	adc	r31, r23
 3f0:	e0 5a       	subi	r30, 0xA0	; 160
 3f2:	ff 4f       	sbci	r31, 0xFF	; 255
 3f4:	ed 0f       	add	r30, r29
 3f6:	f1 1d       	adc	r31, r1
 3f8:	34 97       	sbiw	r30, 0x04	; 4
 3fa:	80 81       	ld	r24, Z
 3fc:	0c c0       	rjmp	.+24     	; 0x416 <__EEPROM_REGION_LENGTH__+0x16>
 3fe:	df 5f       	subi	r29, 0xFF	; 255
 400:	d7 30       	cpi	r29, 0x07	; 7
 402:	19 f7       	brne	.-58     	; 0x3ca <KEYPAD_u8GetChar+0x3a>
 404:	41 e0       	ldi	r20, 0x01	; 1
 406:	6c 2f       	mov	r22, r28
 408:	82 e4       	ldi	r24, 0x42	; 66
 40a:	0e 94 97 03 	call	0x72e	; 0x72e <DIO_voidSetPinValue>
 40e:	cf 5f       	subi	r28, 0xFF	; 255
 410:	c4 30       	cpi	r28, 0x04	; 4
 412:	a9 f6       	brne	.-86     	; 0x3be <KEYPAD_u8GetChar+0x2e>
 414:	80 e0       	ldi	r24, 0x00	; 0
 416:	df 91       	pop	r29
 418:	cf 91       	pop	r28
 41a:	08 95       	ret

0000041c <LCD_voidWriteCommand>:
 41c:	a9 98       	cbi	0x15, 1	; 21
 41e:	aa 98       	cbi	0x15, 2	; 21
 420:	87 fd       	sbrc	r24, 7
 422:	02 c0       	rjmp	.+4      	; 0x428 <LCD_voidWriteCommand+0xc>
 424:	af 98       	cbi	0x15, 7	; 21
 426:	01 c0       	rjmp	.+2      	; 0x42a <LCD_voidWriteCommand+0xe>
 428:	af 9a       	sbi	0x15, 7	; 21
 42a:	86 fd       	sbrc	r24, 6
 42c:	02 c0       	rjmp	.+4      	; 0x432 <LCD_voidWriteCommand+0x16>
 42e:	ae 98       	cbi	0x15, 6	; 21
 430:	01 c0       	rjmp	.+2      	; 0x434 <LCD_voidWriteCommand+0x18>
 432:	ae 9a       	sbi	0x15, 6	; 21
 434:	85 fd       	sbrc	r24, 5
 436:	02 c0       	rjmp	.+4      	; 0x43c <LCD_voidWriteCommand+0x20>
 438:	ad 98       	cbi	0x15, 5	; 21
 43a:	01 c0       	rjmp	.+2      	; 0x43e <LCD_voidWriteCommand+0x22>
 43c:	ad 9a       	sbi	0x15, 5	; 21
 43e:	84 fd       	sbrc	r24, 4
 440:	02 c0       	rjmp	.+4      	; 0x446 <LCD_voidWriteCommand+0x2a>
 442:	ac 98       	cbi	0x15, 4	; 21
 444:	01 c0       	rjmp	.+2      	; 0x448 <LCD_voidWriteCommand+0x2c>
 446:	ac 9a       	sbi	0x15, 4	; 21
 448:	ab 9a       	sbi	0x15, 3	; 21
 44a:	ef e9       	ldi	r30, 0x9F	; 159
 44c:	ff e0       	ldi	r31, 0x0F	; 15
 44e:	31 97       	sbiw	r30, 0x01	; 1
 450:	f1 f7       	brne	.-4      	; 0x44e <LCD_voidWriteCommand+0x32>
 452:	00 c0       	rjmp	.+0      	; 0x454 <LCD_voidWriteCommand+0x38>
 454:	00 00       	nop
 456:	ab 98       	cbi	0x15, 3	; 21
 458:	ef e9       	ldi	r30, 0x9F	; 159
 45a:	ff e0       	ldi	r31, 0x0F	; 15
 45c:	31 97       	sbiw	r30, 0x01	; 1
 45e:	f1 f7       	brne	.-4      	; 0x45c <LCD_voidWriteCommand+0x40>
 460:	00 c0       	rjmp	.+0      	; 0x462 <LCD_voidWriteCommand+0x46>
 462:	00 00       	nop
 464:	83 fd       	sbrc	r24, 3
 466:	02 c0       	rjmp	.+4      	; 0x46c <LCD_voidWriteCommand+0x50>
 468:	af 98       	cbi	0x15, 7	; 21
 46a:	01 c0       	rjmp	.+2      	; 0x46e <LCD_voidWriteCommand+0x52>
 46c:	af 9a       	sbi	0x15, 7	; 21
 46e:	82 fd       	sbrc	r24, 2
 470:	02 c0       	rjmp	.+4      	; 0x476 <LCD_voidWriteCommand+0x5a>
 472:	ae 98       	cbi	0x15, 6	; 21
 474:	01 c0       	rjmp	.+2      	; 0x478 <LCD_voidWriteCommand+0x5c>
 476:	ae 9a       	sbi	0x15, 6	; 21
 478:	81 fd       	sbrc	r24, 1
 47a:	02 c0       	rjmp	.+4      	; 0x480 <LCD_voidWriteCommand+0x64>
 47c:	ad 98       	cbi	0x15, 5	; 21
 47e:	01 c0       	rjmp	.+2      	; 0x482 <LCD_voidWriteCommand+0x66>
 480:	ad 9a       	sbi	0x15, 5	; 21
 482:	80 fd       	sbrc	r24, 0
 484:	02 c0       	rjmp	.+4      	; 0x48a <LCD_voidWriteCommand+0x6e>
 486:	ac 98       	cbi	0x15, 4	; 21
 488:	01 c0       	rjmp	.+2      	; 0x48c <LCD_voidWriteCommand+0x70>
 48a:	ac 9a       	sbi	0x15, 4	; 21
 48c:	ab 9a       	sbi	0x15, 3	; 21
 48e:	8f e9       	ldi	r24, 0x9F	; 159
 490:	9f e0       	ldi	r25, 0x0F	; 15
 492:	01 97       	sbiw	r24, 0x01	; 1
 494:	f1 f7       	brne	.-4      	; 0x492 <LCD_voidWriteCommand+0x76>
 496:	00 c0       	rjmp	.+0      	; 0x498 <LCD_voidWriteCommand+0x7c>
 498:	00 00       	nop
 49a:	ab 98       	cbi	0x15, 3	; 21
 49c:	ef e9       	ldi	r30, 0x9F	; 159
 49e:	ff e0       	ldi	r31, 0x0F	; 15
 4a0:	31 97       	sbiw	r30, 0x01	; 1
 4a2:	f1 f7       	brne	.-4      	; 0x4a0 <LCD_voidWriteCommand+0x84>
 4a4:	00 c0       	rjmp	.+0      	; 0x4a6 <LCD_voidWriteCommand+0x8a>
 4a6:	00 00       	nop
 4a8:	08 95       	ret

000004aa <LCD_voidInit>:
 4aa:	84 b3       	in	r24, 0x14	; 20
 4ac:	8e 6f       	ori	r24, 0xFE	; 254
 4ae:	84 bb       	out	0x14, r24	; 20
 4b0:	2f ef       	ldi	r18, 0xFF	; 255
 4b2:	83 ef       	ldi	r24, 0xF3	; 243
 4b4:	91 e0       	ldi	r25, 0x01	; 1
 4b6:	21 50       	subi	r18, 0x01	; 1
 4b8:	80 40       	sbci	r24, 0x00	; 0
 4ba:	90 40       	sbci	r25, 0x00	; 0
 4bc:	e1 f7       	brne	.-8      	; 0x4b6 <LCD_voidInit+0xc>
 4be:	00 c0       	rjmp	.+0      	; 0x4c0 <LCD_voidInit+0x16>
 4c0:	00 00       	nop
 4c2:	83 e0       	ldi	r24, 0x03	; 3
 4c4:	0e 94 0e 02 	call	0x41c	; 0x41c <LCD_voidWriteCommand>
 4c8:	20 ed       	ldi	r18, 0xD0	; 208
 4ca:	2a 95       	dec	r18
 4cc:	f1 f7       	brne	.-4      	; 0x4ca <LCD_voidInit+0x20>
 4ce:	82 e0       	ldi	r24, 0x02	; 2
 4d0:	0e 94 0e 02 	call	0x41c	; 0x41c <LCD_voidWriteCommand>
 4d4:	88 e2       	ldi	r24, 0x28	; 40
 4d6:	0e 94 0e 02 	call	0x41c	; 0x41c <LCD_voidWriteCommand>
 4da:	85 ec       	ldi	r24, 0xC5	; 197
 4dc:	8a 95       	dec	r24
 4de:	f1 f7       	brne	.-4      	; 0x4dc <LCD_voidInit+0x32>
 4e0:	00 00       	nop
 4e2:	88 e0       	ldi	r24, 0x08	; 8
 4e4:	0e 94 0e 02 	call	0x41c	; 0x41c <LCD_voidWriteCommand>
 4e8:	81 e0       	ldi	r24, 0x01	; 1
 4ea:	0e 94 0e 02 	call	0x41c	; 0x41c <LCD_voidWriteCommand>
 4ee:	86 e0       	ldi	r24, 0x06	; 6
 4f0:	0e 94 0e 02 	call	0x41c	; 0x41c <LCD_voidWriteCommand>
 4f4:	8f e0       	ldi	r24, 0x0F	; 15
 4f6:	0c 94 0e 02 	jmp	0x41c	; 0x41c <LCD_voidWriteCommand>

000004fa <LCD_voidWriteChar>:
 4fa:	a9 9a       	sbi	0x15, 1	; 21
 4fc:	aa 98       	cbi	0x15, 2	; 21
 4fe:	87 fd       	sbrc	r24, 7
 500:	02 c0       	rjmp	.+4      	; 0x506 <LCD_voidWriteChar+0xc>
 502:	af 98       	cbi	0x15, 7	; 21
 504:	01 c0       	rjmp	.+2      	; 0x508 <LCD_voidWriteChar+0xe>
 506:	af 9a       	sbi	0x15, 7	; 21
 508:	86 fd       	sbrc	r24, 6
 50a:	02 c0       	rjmp	.+4      	; 0x510 <LCD_voidWriteChar+0x16>
 50c:	ae 98       	cbi	0x15, 6	; 21
 50e:	01 c0       	rjmp	.+2      	; 0x512 <LCD_voidWriteChar+0x18>
 510:	ae 9a       	sbi	0x15, 6	; 21
 512:	85 fd       	sbrc	r24, 5
 514:	02 c0       	rjmp	.+4      	; 0x51a <LCD_voidWriteChar+0x20>
 516:	ad 98       	cbi	0x15, 5	; 21
 518:	01 c0       	rjmp	.+2      	; 0x51c <LCD_voidWriteChar+0x22>
 51a:	ad 9a       	sbi	0x15, 5	; 21
 51c:	84 fd       	sbrc	r24, 4
 51e:	02 c0       	rjmp	.+4      	; 0x524 <LCD_voidWriteChar+0x2a>
 520:	ac 98       	cbi	0x15, 4	; 21
 522:	01 c0       	rjmp	.+2      	; 0x526 <LCD_voidWriteChar+0x2c>
 524:	ac 9a       	sbi	0x15, 4	; 21
 526:	ab 9a       	sbi	0x15, 3	; 21
 528:	ef e9       	ldi	r30, 0x9F	; 159
 52a:	ff e0       	ldi	r31, 0x0F	; 15
 52c:	31 97       	sbiw	r30, 0x01	; 1
 52e:	f1 f7       	brne	.-4      	; 0x52c <LCD_voidWriteChar+0x32>
 530:	00 c0       	rjmp	.+0      	; 0x532 <LCD_voidWriteChar+0x38>
 532:	00 00       	nop
 534:	ab 98       	cbi	0x15, 3	; 21
 536:	ef e9       	ldi	r30, 0x9F	; 159
 538:	ff e0       	ldi	r31, 0x0F	; 15
 53a:	31 97       	sbiw	r30, 0x01	; 1
 53c:	f1 f7       	brne	.-4      	; 0x53a <LCD_voidWriteChar+0x40>
 53e:	00 c0       	rjmp	.+0      	; 0x540 <LCD_voidWriteChar+0x46>
 540:	00 00       	nop
 542:	83 fd       	sbrc	r24, 3
 544:	02 c0       	rjmp	.+4      	; 0x54a <LCD_voidWriteChar+0x50>
 546:	af 98       	cbi	0x15, 7	; 21
 548:	01 c0       	rjmp	.+2      	; 0x54c <LCD_voidWriteChar+0x52>
 54a:	af 9a       	sbi	0x15, 7	; 21
 54c:	82 fd       	sbrc	r24, 2
 54e:	02 c0       	rjmp	.+4      	; 0x554 <LCD_voidWriteChar+0x5a>
 550:	ae 98       	cbi	0x15, 6	; 21
 552:	01 c0       	rjmp	.+2      	; 0x556 <LCD_voidWriteChar+0x5c>
 554:	ae 9a       	sbi	0x15, 6	; 21
 556:	81 fd       	sbrc	r24, 1
 558:	02 c0       	rjmp	.+4      	; 0x55e <LCD_voidWriteChar+0x64>
 55a:	ad 98       	cbi	0x15, 5	; 21
 55c:	01 c0       	rjmp	.+2      	; 0x560 <LCD_voidWriteChar+0x66>
 55e:	ad 9a       	sbi	0x15, 5	; 21
 560:	80 fd       	sbrc	r24, 0
 562:	02 c0       	rjmp	.+4      	; 0x568 <LCD_voidWriteChar+0x6e>
 564:	ac 98       	cbi	0x15, 4	; 21
 566:	01 c0       	rjmp	.+2      	; 0x56a <LCD_voidWriteChar+0x70>
 568:	ac 9a       	sbi	0x15, 4	; 21
 56a:	ab 9a       	sbi	0x15, 3	; 21
 56c:	8f e9       	ldi	r24, 0x9F	; 159
 56e:	9f e0       	ldi	r25, 0x0F	; 15
 570:	01 97       	sbiw	r24, 0x01	; 1
 572:	f1 f7       	brne	.-4      	; 0x570 <LCD_voidWriteChar+0x76>
 574:	00 c0       	rjmp	.+0      	; 0x576 <LCD_voidWriteChar+0x7c>
 576:	00 00       	nop
 578:	ab 98       	cbi	0x15, 3	; 21
 57a:	ef e9       	ldi	r30, 0x9F	; 159
 57c:	ff e0       	ldi	r31, 0x0F	; 15
 57e:	31 97       	sbiw	r30, 0x01	; 1
 580:	f1 f7       	brne	.-4      	; 0x57e <LCD_voidWriteChar+0x84>
 582:	00 c0       	rjmp	.+0      	; 0x584 <LCD_voidWriteChar+0x8a>
 584:	00 00       	nop
 586:	08 95       	ret

00000588 <LCD_voidWriteString>:
 588:	0f 93       	push	r16
 58a:	1f 93       	push	r17
 58c:	cf 93       	push	r28
 58e:	df 93       	push	r29
 590:	16 2f       	mov	r17, r22
 592:	07 2f       	mov	r16, r23
 594:	81 11       	cpse	r24, r1
 596:	06 c0       	rjmp	.+12     	; 0x5a4 <LCD_voidWriteString+0x1c>
 598:	80 e8       	ldi	r24, 0x80	; 128
 59a:	0e 94 0e 02 	call	0x41c	; 0x41c <LCD_voidWriteCommand>
 59e:	c1 2f       	mov	r28, r17
 5a0:	d0 2f       	mov	r29, r16
 5a2:	04 c0       	rjmp	.+8      	; 0x5ac <LCD_voidWriteString+0x24>
 5a4:	81 30       	cpi	r24, 0x01	; 1
 5a6:	d9 f7       	brne	.-10     	; 0x59e <LCD_voidWriteString+0x16>
 5a8:	80 ec       	ldi	r24, 0xC0	; 192
 5aa:	f7 cf       	rjmp	.-18     	; 0x59a <LCD_voidWriteString+0x12>
 5ac:	89 91       	ld	r24, Y+
 5ae:	88 23       	and	r24, r24
 5b0:	19 f0       	breq	.+6      	; 0x5b8 <LCD_voidWriteString+0x30>
 5b2:	0e 94 7d 02 	call	0x4fa	; 0x4fa <LCD_voidWriteChar>
 5b6:	fa cf       	rjmp	.-12     	; 0x5ac <LCD_voidWriteString+0x24>
 5b8:	df 91       	pop	r29
 5ba:	cf 91       	pop	r28
 5bc:	1f 91       	pop	r17
 5be:	0f 91       	pop	r16
 5c0:	08 95       	ret

000005c2 <LCD_voidWriteNumber>:
 5c2:	0f 93       	push	r16
 5c4:	1f 93       	push	r17
 5c6:	cf 93       	push	r28
 5c8:	df 93       	push	r29
 5ca:	00 d0       	rcall	.+0      	; 0x5cc <LCD_voidWriteNumber+0xa>
 5cc:	00 d0       	rcall	.+0      	; 0x5ce <LCD_voidWriteNumber+0xc>
 5ce:	1f 92       	push	r1
 5d0:	cd b7       	in	r28, 0x3d	; 61
 5d2:	de b7       	in	r29, 0x3e	; 62
 5d4:	00 97       	sbiw	r24, 0x00	; 0
 5d6:	61 f4       	brne	.+24     	; 0x5f0 <LCD_voidWriteNumber+0x2e>
 5d8:	80 e3       	ldi	r24, 0x30	; 48
 5da:	0f 90       	pop	r0
 5dc:	0f 90       	pop	r0
 5de:	0f 90       	pop	r0
 5e0:	0f 90       	pop	r0
 5e2:	0f 90       	pop	r0
 5e4:	df 91       	pop	r29
 5e6:	cf 91       	pop	r28
 5e8:	1f 91       	pop	r17
 5ea:	0f 91       	pop	r16
 5ec:	0c 94 7d 02 	jmp	0x4fa	; 0x4fa <LCD_voidWriteChar>
 5f0:	20 e0       	ldi	r18, 0x00	; 0
 5f2:	0a e0       	ldi	r16, 0x0A	; 10
 5f4:	10 e0       	ldi	r17, 0x00	; 0
 5f6:	e1 e0       	ldi	r30, 0x01	; 1
 5f8:	f0 e0       	ldi	r31, 0x00	; 0
 5fa:	ec 0f       	add	r30, r28
 5fc:	fd 1f       	adc	r31, r29
 5fe:	e2 0f       	add	r30, r18
 600:	f1 1d       	adc	r31, r1
 602:	27 fd       	sbrc	r18, 7
 604:	fa 95       	dec	r31
 606:	b8 01       	movw	r22, r16
 608:	0e 94 a6 04 	call	0x94c	; 0x94c <__udivmodhi4>
 60c:	80 5d       	subi	r24, 0xD0	; 208
 60e:	80 83       	st	Z, r24
 610:	cb 01       	movw	r24, r22
 612:	31 e0       	ldi	r19, 0x01	; 1
 614:	32 0f       	add	r19, r18
 616:	00 97       	sbiw	r24, 0x00	; 0
 618:	11 f0       	breq	.+4      	; 0x61e <LCD_voidWriteNumber+0x5c>
 61a:	23 2f       	mov	r18, r19
 61c:	ec cf       	rjmp	.-40     	; 0x5f6 <LCD_voidWriteNumber+0x34>
 61e:	27 fd       	sbrc	r18, 7
 620:	0f c0       	rjmp	.+30     	; 0x640 <LCD_voidWriteNumber+0x7e>
 622:	1f ef       	ldi	r17, 0xFF	; 255
 624:	12 0f       	add	r17, r18
 626:	e1 e0       	ldi	r30, 0x01	; 1
 628:	f0 e0       	ldi	r31, 0x00	; 0
 62a:	ec 0f       	add	r30, r28
 62c:	fd 1f       	adc	r31, r29
 62e:	e2 0f       	add	r30, r18
 630:	f1 1d       	adc	r31, r1
 632:	27 fd       	sbrc	r18, 7
 634:	fa 95       	dec	r31
 636:	80 81       	ld	r24, Z
 638:	0e 94 7d 02 	call	0x4fa	; 0x4fa <LCD_voidWriteChar>
 63c:	21 2f       	mov	r18, r17
 63e:	ef cf       	rjmp	.-34     	; 0x61e <LCD_voidWriteNumber+0x5c>
 640:	0f 90       	pop	r0
 642:	0f 90       	pop	r0
 644:	0f 90       	pop	r0
 646:	0f 90       	pop	r0
 648:	0f 90       	pop	r0
 64a:	df 91       	pop	r29
 64c:	cf 91       	pop	r28
 64e:	1f 91       	pop	r17
 650:	0f 91       	pop	r16
 652:	08 95       	ret

00000654 <LCD_voidClear>:
 654:	81 e0       	ldi	r24, 0x01	; 1
 656:	0c 94 0e 02 	jmp	0x41c	; 0x41c <LCD_voidWriteCommand>

0000065a <DIO_voidSetPinDirection>:
 65a:	41 30       	cpi	r20, 0x01	; 1
 65c:	79 f5       	brne	.+94     	; 0x6bc <DIO_voidSetPinDirection+0x62>
 65e:	82 34       	cpi	r24, 0x42	; 66
 660:	91 f0       	breq	.+36     	; 0x686 <DIO_voidSetPinDirection+0x2c>
 662:	18 f4       	brcc	.+6      	; 0x66a <DIO_voidSetPinDirection+0x10>
 664:	81 34       	cpi	r24, 0x41	; 65
 666:	31 f0       	breq	.+12     	; 0x674 <DIO_voidSetPinDirection+0x1a>
 668:	08 95       	ret
 66a:	83 34       	cpi	r24, 0x43	; 67
 66c:	a9 f0       	breq	.+42     	; 0x698 <DIO_voidSetPinDirection+0x3e>
 66e:	84 34       	cpi	r24, 0x44	; 68
 670:	e1 f0       	breq	.+56     	; 0x6aa <DIO_voidSetPinDirection+0x50>
 672:	08 95       	ret
 674:	2a b3       	in	r18, 0x1a	; 26
 676:	81 e0       	ldi	r24, 0x01	; 1
 678:	90 e0       	ldi	r25, 0x00	; 0
 67a:	01 c0       	rjmp	.+2      	; 0x67e <DIO_voidSetPinDirection+0x24>
 67c:	88 0f       	add	r24, r24
 67e:	6a 95       	dec	r22
 680:	ea f7       	brpl	.-6      	; 0x67c <DIO_voidSetPinDirection+0x22>
 682:	82 2b       	or	r24, r18
 684:	31 c0       	rjmp	.+98     	; 0x6e8 <DIO_voidSetPinDirection+0x8e>
 686:	27 b3       	in	r18, 0x17	; 23
 688:	81 e0       	ldi	r24, 0x01	; 1
 68a:	90 e0       	ldi	r25, 0x00	; 0
 68c:	01 c0       	rjmp	.+2      	; 0x690 <DIO_voidSetPinDirection+0x36>
 68e:	88 0f       	add	r24, r24
 690:	6a 95       	dec	r22
 692:	ea f7       	brpl	.-6      	; 0x68e <DIO_voidSetPinDirection+0x34>
 694:	82 2b       	or	r24, r18
 696:	33 c0       	rjmp	.+102    	; 0x6fe <DIO_voidSetPinDirection+0xa4>
 698:	24 b3       	in	r18, 0x14	; 20
 69a:	81 e0       	ldi	r24, 0x01	; 1
 69c:	90 e0       	ldi	r25, 0x00	; 0
 69e:	01 c0       	rjmp	.+2      	; 0x6a2 <DIO_voidSetPinDirection+0x48>
 6a0:	88 0f       	add	r24, r24
 6a2:	6a 95       	dec	r22
 6a4:	ea f7       	brpl	.-6      	; 0x6a0 <DIO_voidSetPinDirection+0x46>
 6a6:	82 2b       	or	r24, r18
 6a8:	35 c0       	rjmp	.+106    	; 0x714 <DIO_voidSetPinDirection+0xba>
 6aa:	21 b3       	in	r18, 0x11	; 17
 6ac:	81 e0       	ldi	r24, 0x01	; 1
 6ae:	90 e0       	ldi	r25, 0x00	; 0
 6b0:	01 c0       	rjmp	.+2      	; 0x6b4 <DIO_voidSetPinDirection+0x5a>
 6b2:	88 0f       	add	r24, r24
 6b4:	6a 95       	dec	r22
 6b6:	ea f7       	brpl	.-6      	; 0x6b2 <DIO_voidSetPinDirection+0x58>
 6b8:	82 2b       	or	r24, r18
 6ba:	37 c0       	rjmp	.+110    	; 0x72a <DIO_voidSetPinDirection+0xd0>
 6bc:	41 11       	cpse	r20, r1
 6be:	36 c0       	rjmp	.+108    	; 0x72c <DIO_voidSetPinDirection+0xd2>
 6c0:	82 34       	cpi	r24, 0x42	; 66
 6c2:	a1 f0       	breq	.+40     	; 0x6ec <DIO_voidSetPinDirection+0x92>
 6c4:	18 f4       	brcc	.+6      	; 0x6cc <DIO_voidSetPinDirection+0x72>
 6c6:	81 34       	cpi	r24, 0x41	; 65
 6c8:	31 f0       	breq	.+12     	; 0x6d6 <DIO_voidSetPinDirection+0x7c>
 6ca:	08 95       	ret
 6cc:	83 34       	cpi	r24, 0x43	; 67
 6ce:	c9 f0       	breq	.+50     	; 0x702 <DIO_voidSetPinDirection+0xa8>
 6d0:	84 34       	cpi	r24, 0x44	; 68
 6d2:	11 f1       	breq	.+68     	; 0x718 <DIO_voidSetPinDirection+0xbe>
 6d4:	08 95       	ret
 6d6:	2a b3       	in	r18, 0x1a	; 26
 6d8:	81 e0       	ldi	r24, 0x01	; 1
 6da:	90 e0       	ldi	r25, 0x00	; 0
 6dc:	01 c0       	rjmp	.+2      	; 0x6e0 <DIO_voidSetPinDirection+0x86>
 6de:	88 0f       	add	r24, r24
 6e0:	6a 95       	dec	r22
 6e2:	ea f7       	brpl	.-6      	; 0x6de <DIO_voidSetPinDirection+0x84>
 6e4:	80 95       	com	r24
 6e6:	82 23       	and	r24, r18
 6e8:	8a bb       	out	0x1a, r24	; 26
 6ea:	08 95       	ret
 6ec:	27 b3       	in	r18, 0x17	; 23
 6ee:	81 e0       	ldi	r24, 0x01	; 1
 6f0:	90 e0       	ldi	r25, 0x00	; 0
 6f2:	01 c0       	rjmp	.+2      	; 0x6f6 <DIO_voidSetPinDirection+0x9c>
 6f4:	88 0f       	add	r24, r24
 6f6:	6a 95       	dec	r22
 6f8:	ea f7       	brpl	.-6      	; 0x6f4 <DIO_voidSetPinDirection+0x9a>
 6fa:	80 95       	com	r24
 6fc:	82 23       	and	r24, r18
 6fe:	87 bb       	out	0x17, r24	; 23
 700:	08 95       	ret
 702:	24 b3       	in	r18, 0x14	; 20
 704:	81 e0       	ldi	r24, 0x01	; 1
 706:	90 e0       	ldi	r25, 0x00	; 0
 708:	01 c0       	rjmp	.+2      	; 0x70c <DIO_voidSetPinDirection+0xb2>
 70a:	88 0f       	add	r24, r24
 70c:	6a 95       	dec	r22
 70e:	ea f7       	brpl	.-6      	; 0x70a <DIO_voidSetPinDirection+0xb0>
 710:	80 95       	com	r24
 712:	82 23       	and	r24, r18
 714:	84 bb       	out	0x14, r24	; 20
 716:	08 95       	ret
 718:	21 b3       	in	r18, 0x11	; 17
 71a:	81 e0       	ldi	r24, 0x01	; 1
 71c:	90 e0       	ldi	r25, 0x00	; 0
 71e:	01 c0       	rjmp	.+2      	; 0x722 <DIO_voidSetPinDirection+0xc8>
 720:	88 0f       	add	r24, r24
 722:	6a 95       	dec	r22
 724:	ea f7       	brpl	.-6      	; 0x720 <DIO_voidSetPinDirection+0xc6>
 726:	80 95       	com	r24
 728:	82 23       	and	r24, r18
 72a:	81 bb       	out	0x11, r24	; 17
 72c:	08 95       	ret

0000072e <DIO_voidSetPinValue>:
 72e:	41 30       	cpi	r20, 0x01	; 1
 730:	79 f5       	brne	.+94     	; 0x790 <DIO_voidSetPinValue+0x62>
 732:	82 34       	cpi	r24, 0x42	; 66
 734:	91 f0       	breq	.+36     	; 0x75a <DIO_voidSetPinValue+0x2c>
 736:	18 f4       	brcc	.+6      	; 0x73e <DIO_voidSetPinValue+0x10>
 738:	81 34       	cpi	r24, 0x41	; 65
 73a:	31 f0       	breq	.+12     	; 0x748 <DIO_voidSetPinValue+0x1a>
 73c:	08 95       	ret
 73e:	83 34       	cpi	r24, 0x43	; 67
 740:	a9 f0       	breq	.+42     	; 0x76c <DIO_voidSetPinValue+0x3e>
 742:	84 34       	cpi	r24, 0x44	; 68
 744:	e1 f0       	breq	.+56     	; 0x77e <DIO_voidSetPinValue+0x50>
 746:	08 95       	ret
 748:	2b b3       	in	r18, 0x1b	; 27
 74a:	81 e0       	ldi	r24, 0x01	; 1
 74c:	90 e0       	ldi	r25, 0x00	; 0
 74e:	01 c0       	rjmp	.+2      	; 0x752 <DIO_voidSetPinValue+0x24>
 750:	88 0f       	add	r24, r24
 752:	6a 95       	dec	r22
 754:	ea f7       	brpl	.-6      	; 0x750 <DIO_voidSetPinValue+0x22>
 756:	82 2b       	or	r24, r18
 758:	31 c0       	rjmp	.+98     	; 0x7bc <DIO_voidSetPinValue+0x8e>
 75a:	28 b3       	in	r18, 0x18	; 24
 75c:	81 e0       	ldi	r24, 0x01	; 1
 75e:	90 e0       	ldi	r25, 0x00	; 0
 760:	01 c0       	rjmp	.+2      	; 0x764 <DIO_voidSetPinValue+0x36>
 762:	88 0f       	add	r24, r24
 764:	6a 95       	dec	r22
 766:	ea f7       	brpl	.-6      	; 0x762 <DIO_voidSetPinValue+0x34>
 768:	82 2b       	or	r24, r18
 76a:	33 c0       	rjmp	.+102    	; 0x7d2 <DIO_voidSetPinValue+0xa4>
 76c:	25 b3       	in	r18, 0x15	; 21
 76e:	81 e0       	ldi	r24, 0x01	; 1
 770:	90 e0       	ldi	r25, 0x00	; 0
 772:	01 c0       	rjmp	.+2      	; 0x776 <DIO_voidSetPinValue+0x48>
 774:	88 0f       	add	r24, r24
 776:	6a 95       	dec	r22
 778:	ea f7       	brpl	.-6      	; 0x774 <DIO_voidSetPinValue+0x46>
 77a:	82 2b       	or	r24, r18
 77c:	35 c0       	rjmp	.+106    	; 0x7e8 <DIO_voidSetPinValue+0xba>
 77e:	22 b3       	in	r18, 0x12	; 18
 780:	81 e0       	ldi	r24, 0x01	; 1
 782:	90 e0       	ldi	r25, 0x00	; 0
 784:	01 c0       	rjmp	.+2      	; 0x788 <DIO_voidSetPinValue+0x5a>
 786:	88 0f       	add	r24, r24
 788:	6a 95       	dec	r22
 78a:	ea f7       	brpl	.-6      	; 0x786 <DIO_voidSetPinValue+0x58>
 78c:	82 2b       	or	r24, r18
 78e:	37 c0       	rjmp	.+110    	; 0x7fe <DIO_voidSetPinValue+0xd0>
 790:	41 11       	cpse	r20, r1
 792:	36 c0       	rjmp	.+108    	; 0x800 <__DATA_REGION_LENGTH__>
 794:	82 34       	cpi	r24, 0x42	; 66
 796:	a1 f0       	breq	.+40     	; 0x7c0 <DIO_voidSetPinValue+0x92>
 798:	18 f4       	brcc	.+6      	; 0x7a0 <DIO_voidSetPinValue+0x72>
 79a:	81 34       	cpi	r24, 0x41	; 65
 79c:	31 f0       	breq	.+12     	; 0x7aa <DIO_voidSetPinValue+0x7c>
 79e:	08 95       	ret
 7a0:	83 34       	cpi	r24, 0x43	; 67
 7a2:	c9 f0       	breq	.+50     	; 0x7d6 <DIO_voidSetPinValue+0xa8>
 7a4:	84 34       	cpi	r24, 0x44	; 68
 7a6:	11 f1       	breq	.+68     	; 0x7ec <DIO_voidSetPinValue+0xbe>
 7a8:	08 95       	ret
 7aa:	2b b3       	in	r18, 0x1b	; 27
 7ac:	81 e0       	ldi	r24, 0x01	; 1
 7ae:	90 e0       	ldi	r25, 0x00	; 0
 7b0:	01 c0       	rjmp	.+2      	; 0x7b4 <DIO_voidSetPinValue+0x86>
 7b2:	88 0f       	add	r24, r24
 7b4:	6a 95       	dec	r22
 7b6:	ea f7       	brpl	.-6      	; 0x7b2 <DIO_voidSetPinValue+0x84>
 7b8:	80 95       	com	r24
 7ba:	82 23       	and	r24, r18
 7bc:	8b bb       	out	0x1b, r24	; 27
 7be:	08 95       	ret
 7c0:	28 b3       	in	r18, 0x18	; 24
 7c2:	81 e0       	ldi	r24, 0x01	; 1
 7c4:	90 e0       	ldi	r25, 0x00	; 0
 7c6:	01 c0       	rjmp	.+2      	; 0x7ca <DIO_voidSetPinValue+0x9c>
 7c8:	88 0f       	add	r24, r24
 7ca:	6a 95       	dec	r22
 7cc:	ea f7       	brpl	.-6      	; 0x7c8 <DIO_voidSetPinValue+0x9a>
 7ce:	80 95       	com	r24
 7d0:	82 23       	and	r24, r18
 7d2:	88 bb       	out	0x18, r24	; 24
 7d4:	08 95       	ret
 7d6:	25 b3       	in	r18, 0x15	; 21
 7d8:	81 e0       	ldi	r24, 0x01	; 1
 7da:	90 e0       	ldi	r25, 0x00	; 0
 7dc:	01 c0       	rjmp	.+2      	; 0x7e0 <DIO_voidSetPinValue+0xb2>
 7de:	88 0f       	add	r24, r24
 7e0:	6a 95       	dec	r22
 7e2:	ea f7       	brpl	.-6      	; 0x7de <DIO_voidSetPinValue+0xb0>
 7e4:	80 95       	com	r24
 7e6:	82 23       	and	r24, r18
 7e8:	85 bb       	out	0x15, r24	; 21
 7ea:	08 95       	ret
 7ec:	22 b3       	in	r18, 0x12	; 18
 7ee:	81 e0       	ldi	r24, 0x01	; 1
 7f0:	90 e0       	ldi	r25, 0x00	; 0
 7f2:	01 c0       	rjmp	.+2      	; 0x7f6 <DIO_voidSetPinValue+0xc8>
 7f4:	88 0f       	add	r24, r24
 7f6:	6a 95       	dec	r22
 7f8:	ea f7       	brpl	.-6      	; 0x7f4 <DIO_voidSetPinValue+0xc6>
 7fa:	80 95       	com	r24
 7fc:	82 23       	and	r24, r18
 7fe:	82 bb       	out	0x12, r24	; 18
 800:	08 95       	ret

00000802 <DIO_voidTogPinValue>:
 802:	82 34       	cpi	r24, 0x42	; 66
 804:	99 f0       	breq	.+38     	; 0x82c <DIO_voidTogPinValue+0x2a>
 806:	18 f4       	brcc	.+6      	; 0x80e <DIO_voidTogPinValue+0xc>
 808:	81 34       	cpi	r24, 0x41	; 65
 80a:	31 f0       	breq	.+12     	; 0x818 <DIO_voidTogPinValue+0x16>
 80c:	08 95       	ret
 80e:	83 34       	cpi	r24, 0x43	; 67
 810:	b9 f0       	breq	.+46     	; 0x840 <DIO_voidTogPinValue+0x3e>
 812:	84 34       	cpi	r24, 0x44	; 68
 814:	f9 f0       	breq	.+62     	; 0x854 <DIO_voidTogPinValue+0x52>
 816:	08 95       	ret
 818:	2b b3       	in	r18, 0x1b	; 27
 81a:	81 e0       	ldi	r24, 0x01	; 1
 81c:	90 e0       	ldi	r25, 0x00	; 0
 81e:	01 c0       	rjmp	.+2      	; 0x822 <DIO_voidTogPinValue+0x20>
 820:	88 0f       	add	r24, r24
 822:	6a 95       	dec	r22
 824:	ea f7       	brpl	.-6      	; 0x820 <DIO_voidTogPinValue+0x1e>
 826:	82 27       	eor	r24, r18
 828:	8b bb       	out	0x1b, r24	; 27
 82a:	08 95       	ret
 82c:	28 b3       	in	r18, 0x18	; 24
 82e:	81 e0       	ldi	r24, 0x01	; 1
 830:	90 e0       	ldi	r25, 0x00	; 0
 832:	01 c0       	rjmp	.+2      	; 0x836 <DIO_voidTogPinValue+0x34>
 834:	88 0f       	add	r24, r24
 836:	6a 95       	dec	r22
 838:	ea f7       	brpl	.-6      	; 0x834 <DIO_voidTogPinValue+0x32>
 83a:	82 27       	eor	r24, r18
 83c:	88 bb       	out	0x18, r24	; 24
 83e:	08 95       	ret
 840:	25 b3       	in	r18, 0x15	; 21
 842:	81 e0       	ldi	r24, 0x01	; 1
 844:	90 e0       	ldi	r25, 0x00	; 0
 846:	01 c0       	rjmp	.+2      	; 0x84a <DIO_voidTogPinValue+0x48>
 848:	88 0f       	add	r24, r24
 84a:	6a 95       	dec	r22
 84c:	ea f7       	brpl	.-6      	; 0x848 <DIO_voidTogPinValue+0x46>
 84e:	82 27       	eor	r24, r18
 850:	85 bb       	out	0x15, r24	; 21
 852:	08 95       	ret
 854:	22 b3       	in	r18, 0x12	; 18
 856:	81 e0       	ldi	r24, 0x01	; 1
 858:	90 e0       	ldi	r25, 0x00	; 0
 85a:	01 c0       	rjmp	.+2      	; 0x85e <DIO_voidTogPinValue+0x5c>
 85c:	88 0f       	add	r24, r24
 85e:	6a 95       	dec	r22
 860:	ea f7       	brpl	.-6      	; 0x85c <DIO_voidTogPinValue+0x5a>
 862:	82 27       	eor	r24, r18
 864:	82 bb       	out	0x12, r24	; 18
 866:	08 95       	ret

00000868 <DIO_u8GetPinValue>:
 868:	82 34       	cpi	r24, 0x42	; 66
 86a:	59 f0       	breq	.+22     	; 0x882 <DIO_u8GetPinValue+0x1a>
 86c:	20 f4       	brcc	.+8      	; 0x876 <DIO_u8GetPinValue+0xe>
 86e:	81 34       	cpi	r24, 0x41	; 65
 870:	99 f4       	brne	.+38     	; 0x898 <DIO_u8GetPinValue+0x30>
 872:	89 b3       	in	r24, 0x19	; 25
 874:	09 c0       	rjmp	.+18     	; 0x888 <DIO_u8GetPinValue+0x20>
 876:	83 34       	cpi	r24, 0x43	; 67
 878:	31 f0       	breq	.+12     	; 0x886 <DIO_u8GetPinValue+0x1e>
 87a:	84 34       	cpi	r24, 0x44	; 68
 87c:	69 f4       	brne	.+26     	; 0x898 <DIO_u8GetPinValue+0x30>
 87e:	80 b3       	in	r24, 0x10	; 16
 880:	03 c0       	rjmp	.+6      	; 0x888 <DIO_u8GetPinValue+0x20>
 882:	86 b3       	in	r24, 0x16	; 22
 884:	01 c0       	rjmp	.+2      	; 0x888 <DIO_u8GetPinValue+0x20>
 886:	83 b3       	in	r24, 0x13	; 19
 888:	90 e0       	ldi	r25, 0x00	; 0
 88a:	02 c0       	rjmp	.+4      	; 0x890 <DIO_u8GetPinValue+0x28>
 88c:	95 95       	asr	r25
 88e:	87 95       	ror	r24
 890:	6a 95       	dec	r22
 892:	e2 f7       	brpl	.-8      	; 0x88c <DIO_u8GetPinValue+0x24>
 894:	81 70       	andi	r24, 0x01	; 1
 896:	08 95       	ret
 898:	8f ef       	ldi	r24, 0xFF	; 255
 89a:	08 95       	ret

0000089c <EEPROM_voidWrite>:
 89c:	e1 99       	sbic	0x1c, 1	; 28
 89e:	fe cf       	rjmp	.-4      	; 0x89c <EEPROM_voidWrite>
 8a0:	9f bb       	out	0x1f, r25	; 31
 8a2:	8e bb       	out	0x1e, r24	; 30
 8a4:	6d bb       	out	0x1d, r22	; 29
 8a6:	e2 9a       	sbi	0x1c, 2	; 28
 8a8:	e1 9a       	sbi	0x1c, 1	; 28
 8aa:	08 95       	ret

000008ac <EEPROM_voidRead>:
 8ac:	e1 99       	sbic	0x1c, 1	; 28
 8ae:	fe cf       	rjmp	.-4      	; 0x8ac <EEPROM_voidRead>
 8b0:	9f bb       	out	0x1f, r25	; 31
 8b2:	8e bb       	out	0x1e, r24	; 30
 8b4:	e0 9a       	sbi	0x1c, 0	; 28
 8b6:	8d b3       	in	r24, 0x1d	; 29
 8b8:	08 95       	ret

000008ba <TIMER0_voidInit>:
 8ba:	13 be       	out	0x33, r1	; 51
 8bc:	12 be       	out	0x32, r1	; 50
 8be:	89 b7       	in	r24, 0x39	; 57
 8c0:	81 60       	ori	r24, 0x01	; 1
 8c2:	89 bf       	out	0x39, r24	; 57
 8c4:	83 b7       	in	r24, 0x33	; 51
 8c6:	81 60       	ori	r24, 0x01	; 1
 8c8:	83 bf       	out	0x33, r24	; 51
 8ca:	83 b7       	in	r24, 0x33	; 51
 8cc:	82 60       	ori	r24, 0x02	; 2
 8ce:	83 bf       	out	0x33, r24	; 51
 8d0:	08 95       	ret

000008d2 <TIMER0_voidDelay_ms>:
 8d2:	20 e0       	ldi	r18, 0x00	; 0
 8d4:	30 e0       	ldi	r19, 0x00	; 0
 8d6:	4a e7       	ldi	r20, 0x7A	; 122
 8d8:	54 e4       	ldi	r21, 0x44	; 68
 8da:	0e 94 ba 04 	call	0x974	; 0x974 <__divsf3>
 8de:	2d eb       	ldi	r18, 0xBD	; 189
 8e0:	37 e3       	ldi	r19, 0x37	; 55
 8e2:	46 e8       	ldi	r20, 0x86	; 134
 8e4:	5a e3       	ldi	r21, 0x3A	; 58
 8e6:	0e 94 ba 04 	call	0x974	; 0x974 <__divsf3>
 8ea:	0e 94 2c 05 	call	0xa58	; 0xa58 <__fixunssfsi>
 8ee:	80 e0       	ldi	r24, 0x00	; 0
 8f0:	90 e0       	ldi	r25, 0x00	; 0
 8f2:	86 17       	cp	r24, r22
 8f4:	97 07       	cpc	r25, r23
 8f6:	41 f0       	breq	.+16     	; 0x908 <TIMER0_voidDelay_ms+0x36>
 8f8:	08 b6       	in	r0, 0x38	; 56
 8fa:	00 fe       	sbrs	r0, 0
 8fc:	fd cf       	rjmp	.-6      	; 0x8f8 <TIMER0_voidDelay_ms+0x26>
 8fe:	28 b7       	in	r18, 0x38	; 56
 900:	21 60       	ori	r18, 0x01	; 1
 902:	28 bf       	out	0x38, r18	; 56
 904:	01 96       	adiw	r24, 0x01	; 1
 906:	f5 cf       	rjmp	.-22     	; 0x8f2 <TIMER0_voidDelay_ms+0x20>
 908:	08 95       	ret

0000090a <TIMER0_voidDelay_us>:
 90a:	20 e0       	ldi	r18, 0x00	; 0
 90c:	34 e2       	ldi	r19, 0x24	; 36
 90e:	44 e7       	ldi	r20, 0x74	; 116
 910:	59 e4       	ldi	r21, 0x49	; 73
 912:	0e 94 ba 04 	call	0x974	; 0x974 <__divsf3>
 916:	2d eb       	ldi	r18, 0xBD	; 189
 918:	37 e3       	ldi	r19, 0x37	; 55
 91a:	46 e8       	ldi	r20, 0x86	; 134
 91c:	5a e3       	ldi	r21, 0x3A	; 58
 91e:	0e 94 ba 04 	call	0x974	; 0x974 <__divsf3>
 922:	0e 94 2c 05 	call	0xa58	; 0xa58 <__fixunssfsi>
 926:	80 e0       	ldi	r24, 0x00	; 0
 928:	90 e0       	ldi	r25, 0x00	; 0
 92a:	86 17       	cp	r24, r22
 92c:	97 07       	cpc	r25, r23
 92e:	41 f0       	breq	.+16     	; 0x940 <TIMER0_voidDelay_us+0x36>
 930:	08 b6       	in	r0, 0x38	; 56
 932:	00 fe       	sbrs	r0, 0
 934:	fd cf       	rjmp	.-6      	; 0x930 <TIMER0_voidDelay_us+0x26>
 936:	28 b7       	in	r18, 0x38	; 56
 938:	21 60       	ori	r18, 0x01	; 1
 93a:	28 bf       	out	0x38, r18	; 56
 93c:	01 96       	adiw	r24, 0x01	; 1
 93e:	f5 cf       	rjmp	.-22     	; 0x92a <TIMER0_voidDelay_us+0x20>
 940:	08 95       	ret

00000942 <main>:
 942:	0e 94 49 00 	call	0x92	; 0x92 <APP_voidInit>
 946:	0e 94 d9 00 	call	0x1b2	; 0x1b2 <APP_voidStart>
 94a:	fd cf       	rjmp	.-6      	; 0x946 <main+0x4>

0000094c <__udivmodhi4>:
 94c:	aa 1b       	sub	r26, r26
 94e:	bb 1b       	sub	r27, r27
 950:	51 e1       	ldi	r21, 0x11	; 17
 952:	07 c0       	rjmp	.+14     	; 0x962 <__udivmodhi4_ep>

00000954 <__udivmodhi4_loop>:
 954:	aa 1f       	adc	r26, r26
 956:	bb 1f       	adc	r27, r27
 958:	a6 17       	cp	r26, r22
 95a:	b7 07       	cpc	r27, r23
 95c:	10 f0       	brcs	.+4      	; 0x962 <__udivmodhi4_ep>
 95e:	a6 1b       	sub	r26, r22
 960:	b7 0b       	sbc	r27, r23

00000962 <__udivmodhi4_ep>:
 962:	88 1f       	adc	r24, r24
 964:	99 1f       	adc	r25, r25
 966:	5a 95       	dec	r21
 968:	a9 f7       	brne	.-22     	; 0x954 <__udivmodhi4_loop>
 96a:	80 95       	com	r24
 96c:	90 95       	com	r25
 96e:	bc 01       	movw	r22, r24
 970:	cd 01       	movw	r24, r26
 972:	08 95       	ret

00000974 <__divsf3>:
 974:	0e 94 ce 04 	call	0x99c	; 0x99c <__divsf3x>
 978:	0c 94 72 05 	jmp	0xae4	; 0xae4 <__fp_round>
 97c:	0e 94 6b 05 	call	0xad6	; 0xad6 <__fp_pscB>
 980:	58 f0       	brcs	.+22     	; 0x998 <__divsf3+0x24>
 982:	0e 94 64 05 	call	0xac8	; 0xac8 <__fp_pscA>
 986:	40 f0       	brcs	.+16     	; 0x998 <__divsf3+0x24>
 988:	29 f4       	brne	.+10     	; 0x994 <__divsf3+0x20>
 98a:	5f 3f       	cpi	r21, 0xFF	; 255
 98c:	29 f0       	breq	.+10     	; 0x998 <__divsf3+0x24>
 98e:	0c 94 5b 05 	jmp	0xab6	; 0xab6 <__fp_inf>
 992:	51 11       	cpse	r21, r1
 994:	0c 94 a6 05 	jmp	0xb4c	; 0xb4c <__fp_szero>
 998:	0c 94 61 05 	jmp	0xac2	; 0xac2 <__fp_nan>

0000099c <__divsf3x>:
 99c:	0e 94 83 05 	call	0xb06	; 0xb06 <__fp_split3>
 9a0:	68 f3       	brcs	.-38     	; 0x97c <__divsf3+0x8>

000009a2 <__divsf3_pse>:
 9a2:	99 23       	and	r25, r25
 9a4:	b1 f3       	breq	.-20     	; 0x992 <__divsf3+0x1e>
 9a6:	55 23       	and	r21, r21
 9a8:	91 f3       	breq	.-28     	; 0x98e <__divsf3+0x1a>
 9aa:	95 1b       	sub	r25, r21
 9ac:	55 0b       	sbc	r21, r21
 9ae:	bb 27       	eor	r27, r27
 9b0:	aa 27       	eor	r26, r26
 9b2:	62 17       	cp	r22, r18
 9b4:	73 07       	cpc	r23, r19
 9b6:	84 07       	cpc	r24, r20
 9b8:	38 f0       	brcs	.+14     	; 0x9c8 <__divsf3_pse+0x26>
 9ba:	9f 5f       	subi	r25, 0xFF	; 255
 9bc:	5f 4f       	sbci	r21, 0xFF	; 255
 9be:	22 0f       	add	r18, r18
 9c0:	33 1f       	adc	r19, r19
 9c2:	44 1f       	adc	r20, r20
 9c4:	aa 1f       	adc	r26, r26
 9c6:	a9 f3       	breq	.-22     	; 0x9b2 <__divsf3_pse+0x10>
 9c8:	35 d0       	rcall	.+106    	; 0xa34 <__divsf3_pse+0x92>
 9ca:	0e 2e       	mov	r0, r30
 9cc:	3a f0       	brmi	.+14     	; 0x9dc <__divsf3_pse+0x3a>
 9ce:	e0 e8       	ldi	r30, 0x80	; 128
 9d0:	32 d0       	rcall	.+100    	; 0xa36 <__divsf3_pse+0x94>
 9d2:	91 50       	subi	r25, 0x01	; 1
 9d4:	50 40       	sbci	r21, 0x00	; 0
 9d6:	e6 95       	lsr	r30
 9d8:	00 1c       	adc	r0, r0
 9da:	ca f7       	brpl	.-14     	; 0x9ce <__divsf3_pse+0x2c>
 9dc:	2b d0       	rcall	.+86     	; 0xa34 <__divsf3_pse+0x92>
 9de:	fe 2f       	mov	r31, r30
 9e0:	29 d0       	rcall	.+82     	; 0xa34 <__divsf3_pse+0x92>
 9e2:	66 0f       	add	r22, r22
 9e4:	77 1f       	adc	r23, r23
 9e6:	88 1f       	adc	r24, r24
 9e8:	bb 1f       	adc	r27, r27
 9ea:	26 17       	cp	r18, r22
 9ec:	37 07       	cpc	r19, r23
 9ee:	48 07       	cpc	r20, r24
 9f0:	ab 07       	cpc	r26, r27
 9f2:	b0 e8       	ldi	r27, 0x80	; 128
 9f4:	09 f0       	breq	.+2      	; 0x9f8 <__divsf3_pse+0x56>
 9f6:	bb 0b       	sbc	r27, r27
 9f8:	80 2d       	mov	r24, r0
 9fa:	bf 01       	movw	r22, r30
 9fc:	ff 27       	eor	r31, r31
 9fe:	93 58       	subi	r25, 0x83	; 131
 a00:	5f 4f       	sbci	r21, 0xFF	; 255
 a02:	3a f0       	brmi	.+14     	; 0xa12 <__divsf3_pse+0x70>
 a04:	9e 3f       	cpi	r25, 0xFE	; 254
 a06:	51 05       	cpc	r21, r1
 a08:	78 f0       	brcs	.+30     	; 0xa28 <__divsf3_pse+0x86>
 a0a:	0c 94 5b 05 	jmp	0xab6	; 0xab6 <__fp_inf>
 a0e:	0c 94 a6 05 	jmp	0xb4c	; 0xb4c <__fp_szero>
 a12:	5f 3f       	cpi	r21, 0xFF	; 255
 a14:	e4 f3       	brlt	.-8      	; 0xa0e <__divsf3_pse+0x6c>
 a16:	98 3e       	cpi	r25, 0xE8	; 232
 a18:	d4 f3       	brlt	.-12     	; 0xa0e <__divsf3_pse+0x6c>
 a1a:	86 95       	lsr	r24
 a1c:	77 95       	ror	r23
 a1e:	67 95       	ror	r22
 a20:	b7 95       	ror	r27
 a22:	f7 95       	ror	r31
 a24:	9f 5f       	subi	r25, 0xFF	; 255
 a26:	c9 f7       	brne	.-14     	; 0xa1a <__divsf3_pse+0x78>
 a28:	88 0f       	add	r24, r24
 a2a:	91 1d       	adc	r25, r1
 a2c:	96 95       	lsr	r25
 a2e:	87 95       	ror	r24
 a30:	97 f9       	bld	r25, 7
 a32:	08 95       	ret
 a34:	e1 e0       	ldi	r30, 0x01	; 1
 a36:	66 0f       	add	r22, r22
 a38:	77 1f       	adc	r23, r23
 a3a:	88 1f       	adc	r24, r24
 a3c:	bb 1f       	adc	r27, r27
 a3e:	62 17       	cp	r22, r18
 a40:	73 07       	cpc	r23, r19
 a42:	84 07       	cpc	r24, r20
 a44:	ba 07       	cpc	r27, r26
 a46:	20 f0       	brcs	.+8      	; 0xa50 <__divsf3_pse+0xae>
 a48:	62 1b       	sub	r22, r18
 a4a:	73 0b       	sbc	r23, r19
 a4c:	84 0b       	sbc	r24, r20
 a4e:	ba 0b       	sbc	r27, r26
 a50:	ee 1f       	adc	r30, r30
 a52:	88 f7       	brcc	.-30     	; 0xa36 <__divsf3_pse+0x94>
 a54:	e0 95       	com	r30
 a56:	08 95       	ret

00000a58 <__fixunssfsi>:
 a58:	0e 94 8b 05 	call	0xb16	; 0xb16 <__fp_splitA>
 a5c:	88 f0       	brcs	.+34     	; 0xa80 <__fixunssfsi+0x28>
 a5e:	9f 57       	subi	r25, 0x7F	; 127
 a60:	98 f0       	brcs	.+38     	; 0xa88 <__fixunssfsi+0x30>
 a62:	b9 2f       	mov	r27, r25
 a64:	99 27       	eor	r25, r25
 a66:	b7 51       	subi	r27, 0x17	; 23
 a68:	b0 f0       	brcs	.+44     	; 0xa96 <__fixunssfsi+0x3e>
 a6a:	e1 f0       	breq	.+56     	; 0xaa4 <__fixunssfsi+0x4c>
 a6c:	66 0f       	add	r22, r22
 a6e:	77 1f       	adc	r23, r23
 a70:	88 1f       	adc	r24, r24
 a72:	99 1f       	adc	r25, r25
 a74:	1a f0       	brmi	.+6      	; 0xa7c <__fixunssfsi+0x24>
 a76:	ba 95       	dec	r27
 a78:	c9 f7       	brne	.-14     	; 0xa6c <__fixunssfsi+0x14>
 a7a:	14 c0       	rjmp	.+40     	; 0xaa4 <__fixunssfsi+0x4c>
 a7c:	b1 30       	cpi	r27, 0x01	; 1
 a7e:	91 f0       	breq	.+36     	; 0xaa4 <__fixunssfsi+0x4c>
 a80:	0e 94 a5 05 	call	0xb4a	; 0xb4a <__fp_zero>
 a84:	b1 e0       	ldi	r27, 0x01	; 1
 a86:	08 95       	ret
 a88:	0c 94 a5 05 	jmp	0xb4a	; 0xb4a <__fp_zero>
 a8c:	67 2f       	mov	r22, r23
 a8e:	78 2f       	mov	r23, r24
 a90:	88 27       	eor	r24, r24
 a92:	b8 5f       	subi	r27, 0xF8	; 248
 a94:	39 f0       	breq	.+14     	; 0xaa4 <__fixunssfsi+0x4c>
 a96:	b9 3f       	cpi	r27, 0xF9	; 249
 a98:	cc f3       	brlt	.-14     	; 0xa8c <__fixunssfsi+0x34>
 a9a:	86 95       	lsr	r24
 a9c:	77 95       	ror	r23
 a9e:	67 95       	ror	r22
 aa0:	b3 95       	inc	r27
 aa2:	d9 f7       	brne	.-10     	; 0xa9a <__fixunssfsi+0x42>
 aa4:	3e f4       	brtc	.+14     	; 0xab4 <__fixunssfsi+0x5c>
 aa6:	90 95       	com	r25
 aa8:	80 95       	com	r24
 aaa:	70 95       	com	r23
 aac:	61 95       	neg	r22
 aae:	7f 4f       	sbci	r23, 0xFF	; 255
 ab0:	8f 4f       	sbci	r24, 0xFF	; 255
 ab2:	9f 4f       	sbci	r25, 0xFF	; 255
 ab4:	08 95       	ret

00000ab6 <__fp_inf>:
 ab6:	97 f9       	bld	r25, 7
 ab8:	9f 67       	ori	r25, 0x7F	; 127
 aba:	80 e8       	ldi	r24, 0x80	; 128
 abc:	70 e0       	ldi	r23, 0x00	; 0
 abe:	60 e0       	ldi	r22, 0x00	; 0
 ac0:	08 95       	ret

00000ac2 <__fp_nan>:
 ac2:	9f ef       	ldi	r25, 0xFF	; 255
 ac4:	80 ec       	ldi	r24, 0xC0	; 192
 ac6:	08 95       	ret

00000ac8 <__fp_pscA>:
 ac8:	00 24       	eor	r0, r0
 aca:	0a 94       	dec	r0
 acc:	16 16       	cp	r1, r22
 ace:	17 06       	cpc	r1, r23
 ad0:	18 06       	cpc	r1, r24
 ad2:	09 06       	cpc	r0, r25
 ad4:	08 95       	ret

00000ad6 <__fp_pscB>:
 ad6:	00 24       	eor	r0, r0
 ad8:	0a 94       	dec	r0
 ada:	12 16       	cp	r1, r18
 adc:	13 06       	cpc	r1, r19
 ade:	14 06       	cpc	r1, r20
 ae0:	05 06       	cpc	r0, r21
 ae2:	08 95       	ret

00000ae4 <__fp_round>:
 ae4:	09 2e       	mov	r0, r25
 ae6:	03 94       	inc	r0
 ae8:	00 0c       	add	r0, r0
 aea:	11 f4       	brne	.+4      	; 0xaf0 <__fp_round+0xc>
 aec:	88 23       	and	r24, r24
 aee:	52 f0       	brmi	.+20     	; 0xb04 <__fp_round+0x20>
 af0:	bb 0f       	add	r27, r27
 af2:	40 f4       	brcc	.+16     	; 0xb04 <__fp_round+0x20>
 af4:	bf 2b       	or	r27, r31
 af6:	11 f4       	brne	.+4      	; 0xafc <__fp_round+0x18>
 af8:	60 ff       	sbrs	r22, 0
 afa:	04 c0       	rjmp	.+8      	; 0xb04 <__fp_round+0x20>
 afc:	6f 5f       	subi	r22, 0xFF	; 255
 afe:	7f 4f       	sbci	r23, 0xFF	; 255
 b00:	8f 4f       	sbci	r24, 0xFF	; 255
 b02:	9f 4f       	sbci	r25, 0xFF	; 255
 b04:	08 95       	ret

00000b06 <__fp_split3>:
 b06:	57 fd       	sbrc	r21, 7
 b08:	90 58       	subi	r25, 0x80	; 128
 b0a:	44 0f       	add	r20, r20
 b0c:	55 1f       	adc	r21, r21
 b0e:	59 f0       	breq	.+22     	; 0xb26 <__fp_splitA+0x10>
 b10:	5f 3f       	cpi	r21, 0xFF	; 255
 b12:	71 f0       	breq	.+28     	; 0xb30 <__fp_splitA+0x1a>
 b14:	47 95       	ror	r20

00000b16 <__fp_splitA>:
 b16:	88 0f       	add	r24, r24
 b18:	97 fb       	bst	r25, 7
 b1a:	99 1f       	adc	r25, r25
 b1c:	61 f0       	breq	.+24     	; 0xb36 <__fp_splitA+0x20>
 b1e:	9f 3f       	cpi	r25, 0xFF	; 255
 b20:	79 f0       	breq	.+30     	; 0xb40 <__fp_splitA+0x2a>
 b22:	87 95       	ror	r24
 b24:	08 95       	ret
 b26:	12 16       	cp	r1, r18
 b28:	13 06       	cpc	r1, r19
 b2a:	14 06       	cpc	r1, r20
 b2c:	55 1f       	adc	r21, r21
 b2e:	f2 cf       	rjmp	.-28     	; 0xb14 <__fp_split3+0xe>
 b30:	46 95       	lsr	r20
 b32:	f1 df       	rcall	.-30     	; 0xb16 <__fp_splitA>
 b34:	08 c0       	rjmp	.+16     	; 0xb46 <__fp_splitA+0x30>
 b36:	16 16       	cp	r1, r22
 b38:	17 06       	cpc	r1, r23
 b3a:	18 06       	cpc	r1, r24
 b3c:	99 1f       	adc	r25, r25
 b3e:	f1 cf       	rjmp	.-30     	; 0xb22 <__fp_splitA+0xc>
 b40:	86 95       	lsr	r24
 b42:	71 05       	cpc	r23, r1
 b44:	61 05       	cpc	r22, r1
 b46:	08 94       	sec
 b48:	08 95       	ret

00000b4a <__fp_zero>:
 b4a:	e8 94       	clt

00000b4c <__fp_szero>:
 b4c:	bb 27       	eor	r27, r27
 b4e:	66 27       	eor	r22, r22
 b50:	77 27       	eor	r23, r23
 b52:	cb 01       	movw	r24, r22
 b54:	97 f9       	bld	r25, 7
 b56:	08 95       	ret

00000b58 <_exit>:
 b58:	f8 94       	cli

00000b5a <__stop_program>:
 b5a:	ff cf       	rjmp	.-2      	; 0xb5a <__stop_program>
